target datalayout = "e-m:e-p270:32:32-p271:32:32-p272:64:64-i64:64-i128:128-f80:128-n8:16:32:64-S128"
target triple = "x86_64-unknown-linux-gnu"

%"struct.icu_75::CollationSettings" = type <{ %"class.icu_75::SharedObject", i32, i32, ptr, i32, [4 x i8], ptr, i32, [4 x i8], ptr, i32, i32, i32, [384 x i16], [4 x i8] }>
%"class.icu_75::SharedObject" = type { %"class.icu_75::UObject", i32, %"struct.std::atomic", ptr }
%"class.icu_75::UObject" = type { ptr }
%"struct.std::atomic" = type { %"struct.std::__atomic_base" }
%"struct.std::__atomic_base" = type { i32 }

; Function Attrs: mustprogress uwtable
define void @_ZN6icu_7517CollationSettings16setReorderArraysEPKiiPKjiPKhR10UErrorCode(ptr noundef nonnull align 8 dereferenceable(852) %this, ptr noundef %codes, i32 noundef %codesLength, ptr noundef %ranges, i32 noundef %rangesLength, ptr noundef %table, ptr noundef nonnull align 4 dereferenceable(4) %errorCode) #0 align 2 {
entry:
  %this.addr = alloca ptr, align 8
  %codes.addr = alloca ptr, align 8
  %codesLength.addr = alloca i32, align 4
  %ranges.addr = alloca ptr, align 8
  %rangesLength.addr = alloca i32, align 4
  %table.addr = alloca ptr, align 8
  %errorCode.addr = alloca ptr, align 8
  %ownedCodes = alloca ptr, align 8
  %totalLength = alloca i32, align 4
  %capacity = alloca i32, align 4
  store ptr %this, ptr %this.addr, align 8
  store ptr %codes, ptr %codes.addr, align 8
  store i32 %codesLength, ptr %codesLength.addr, align 4
  store ptr %ranges, ptr %ranges.addr, align 8
  store i32 %rangesLength, ptr %rangesLength.addr, align 4
  store ptr %table, ptr %table.addr, align 8
  store ptr %errorCode, ptr %errorCode.addr, align 8
  %this1 = load ptr, ptr %this.addr, align 8
  %0 = load ptr, ptr %errorCode.addr, align 8
  %1 = load i32, ptr %0, align 4
  %call = call noundef signext i8 @_ZL9U_FAILURE10UErrorCode(i32 noundef %1)
  %tobool = icmp ne i8 %call, 0
  br i1 %tobool, label %if.then, label %if.end

if.then:                                          ; preds = %entry
  br label %return

if.end:                                           ; preds = %entry
  %2 = load i32, ptr %codesLength.addr, align 4
  %3 = load i32, ptr %rangesLength.addr, align 4
  %add = add nsw i32 %2, %3
  store i32 %add, ptr %totalLength, align 4
  %4 = load i32, ptr %totalLength, align 4
  %reorderCodesCapacity = getelementptr inbounds %"struct.icu_75::CollationSettings", ptr %this1, i32 0, i32 11
  %5 = load i32, ptr %reorderCodesCapacity, align 4
  %cmp = icmp sle i32 %4, %5
  br i1 %cmp, label %if.then2, label %if.else

if.then2:                                         ; preds = %if.end
  %reorderCodes = getelementptr inbounds %"struct.icu_75::CollationSettings", ptr %this1, i32 0, i32 9
  %6 = load ptr, ptr %reorderCodes, align 8
  store ptr %6, ptr %ownedCodes, align 8
  br label %if.end16

if.else:                                          ; preds = %if.end
  %7 = load i32, ptr %totalLength, align 4
  %add3 = add nsw i32 %7, 3
  %and = and i32 %add3, -4
  store i32 %and, ptr %capacity, align 4
  %8 = load i32, ptr %capacity, align 4
  %mul = mul nsw i32 %8, 4
  %add4 = add nsw i32 %mul, 256
  %conv = sext i32 %add4 to i64
  %call5 = call noalias ptr @uprv_malloc_75(i64 noundef %conv) #9
  store ptr %call5, ptr %ownedCodes, align 8
  %9 = load ptr, ptr %ownedCodes, align 8
  %cmp6 = icmp eq ptr %9, null
  br i1 %cmp6, label %if.then7, label %if.end8

if.then7:                                         ; preds = %if.else
  call void @_ZN6icu_7517CollationSettings15resetReorderingEv(ptr noundef nonnull align 8 dereferenceable(852) %this1)
  %10 = load ptr, ptr %errorCode.addr, align 8
  store i32 7, ptr %10, align 4
  br label %return

if.end8:                                          ; preds = %if.else
  %reorderCodesCapacity9 = getelementptr inbounds %"struct.icu_75::CollationSettings", ptr %this1, i32 0, i32 11
  %11 = load i32, ptr %reorderCodesCapacity9, align 4
  %cmp10 = icmp ne i32 %11, 0
  br i1 %cmp10, label %if.then11, label %if.end13

if.then11:                                        ; preds = %if.end8
  %reorderCodes12 = getelementptr inbounds %"struct.icu_75::CollationSettings", ptr %this1, i32 0, i32 9
  %12 = load ptr, ptr %reorderCodes12, align 8
  call void @uprv_free_75(ptr noundef %12)
  br label %if.end13

if.end13:                                         ; preds = %if.then11, %if.end8
  %13 = load ptr, ptr %ownedCodes, align 8
  %reorderCodes14 = getelementptr inbounds %"struct.icu_75::CollationSettings", ptr %this1, i32 0, i32 9
  store ptr %13, ptr %reorderCodes14, align 8
  %14 = load i32, ptr %capacity, align 4
  %reorderCodesCapacity15 = getelementptr inbounds %"struct.icu_75::CollationSettings", ptr %this1, i32 0, i32 11
  store i32 %14, ptr %reorderCodesCapacity15, align 4
  br label %if.end16

if.end16:                                         ; preds = %if.end13, %if.then2
  br label %do.body

do.body:                                          ; preds = %if.end16
  %15 = load ptr, ptr %ownedCodes, align 8
  %reorderCodesCapacity17 = getelementptr inbounds %"struct.icu_75::CollationSettings", ptr %this1, i32 0, i32 11
  %16 = load i32, ptr %reorderCodesCapacity17, align 4
  %idx.ext = sext i32 %16 to i64
  %add.ptr = getelementptr inbounds i32, ptr %15, i64 %idx.ext
  %17 = load ptr, ptr %table.addr, align 8
  call void @llvm.memcpy.p0.p0.i64(ptr align 4 %add.ptr, ptr align 1 %17, i64 256, i1 false)
  br label %do.end

do.end:                                           ; preds = %do.body
  br label %do.body18

do.body18:                                        ; preds = %do.end
  %18 = load ptr, ptr %ownedCodes, align 8
  %19 = load ptr, ptr %codes.addr, align 8
  %20 = load i32, ptr %codesLength.addr, align 4
  %mul19 = mul nsw i32 %20, 4
  %conv20 = sext i32 %mul19 to i64
  call void @llvm.memcpy.p0.p0.i64(ptr align 4 %18, ptr align 4 %19, i64 %conv20, i1 false)
  br label %do.end21

do.end21:                                         ; preds = %do.body18
  br label %do.body22

do.body22:                                        ; preds = %do.end21
  %21 = load ptr, ptr %ownedCodes, align 8
  %22 = load i32, ptr %codesLength.addr, align 4
  %idx.ext23 = sext i32 %22 to i64
  %add.ptr24 = getelementptr inbounds i32, ptr %21, i64 %idx.ext23
  %23 = load ptr, ptr %ranges.addr, align 8
  %24 = load i32, ptr %rangesLength.addr, align 4
  %mul25 = mul nsw i32 %24, 4
  %conv26 = sext i32 %mul25 to i64
  call void @llvm.memcpy.p0.p0.i64(ptr align 4 %add.ptr24, ptr align 4 %23, i64 %conv26, i1 false)
  br label %do.end27

do.end27:                                         ; preds = %do.body22
  %reorderCodes28 = getelementptr inbounds %"struct.icu_75::CollationSettings", ptr %this1, i32 0, i32 9
  %25 = load ptr, ptr %reorderCodes28, align 8
  %reorderCodesCapacity29 = getelementptr inbounds %"struct.icu_75::CollationSettings", ptr %this1, i32 0, i32 11
  %26 = load i32, ptr %reorderCodesCapacity29, align 4
  %idx.ext30 = sext i32 %26 to i64
  %add.ptr31 = getelementptr inbounds i32, ptr %25, i64 %idx.ext30
  %reorderTable = getelementptr inbounds %"struct.icu_75::CollationSettings", ptr %this1, i32 0, i32 3
  store ptr %add.ptr31, ptr %reorderTable, align 8
  %27 = load i32, ptr %codesLength.addr, align 4
  %reorderCodesLength = getelementptr inbounds %"struct.icu_75::CollationSettings", ptr %this1, i32 0, i32 10
  store i32 %27, ptr %reorderCodesLength, align 8
  %28 = load ptr, ptr %ownedCodes, align 8
  %29 = load i32, ptr %codesLength.addr, align 4
  %idx.ext32 = sext i32 %29 to i64
  %add.ptr33 = getelementptr inbounds i32, ptr %28, i64 %idx.ext32
  %reorderRanges = getelementptr inbounds %"struct.icu_75::CollationSettings", ptr %this1, i32 0, i32 6
  store ptr %add.ptr33, ptr %reorderRanges, align 8
  %30 = load i32, ptr %rangesLength.addr, align 4
  %reorderRangesLength = getelementptr inbounds %"struct.icu_75::CollationSettings", ptr %this1, i32 0, i32 7
  store i32 %30, ptr %reorderRangesLength, align 8
  br label %return

return:                                           ; preds = %do.end27, %if.then7, %if.then
  ret void
}

; Function Attrs: mustprogress nounwind uwtable
define void @_ZN6icu_7517CollationSettings15resetReorderingEv(ptr noundef nonnull align 8 dereferenceable(852) %this) #1 align 2 {
entry:
  %this.addr = alloca ptr, align 8
  store ptr %this, ptr %this.addr, align 8
  %this1 = load ptr, ptr %this.addr, align 8
  %reorderTable = getelementptr inbounds %"struct.icu_75::CollationSettings", ptr %this1, i32 0, i32 3
  store ptr null, ptr %reorderTable, align 8
  %minHighNoReorder = getelementptr inbounds %"struct.icu_75::CollationSettings", ptr %this1, i32 0, i32 4
  store i32 0, ptr %minHighNoReorder, align 8
  %reorderRangesLength = getelementptr inbounds %"struct.icu_75::CollationSettings", ptr %this1, i32 0, i32 7
  store i32 0, ptr %reorderRangesLength, align 8
  %reorderCodesLength = getelementptr inbounds %"struct.icu_75::CollationSettings", ptr %this1, i32 0, i32 10
  store i32 0, ptr %reorderCodesLength, align 8
  ret void
}

; Function Attrs: mustprogress nounwind uwtable
define linkonce_odr noundef signext i8 @_ZNK6icu_7517CollationSettings13hasReorderingEv(ptr noundef nonnull align 8 dereferenceable(852) %this) #1 comdat align 2 {
entry:
  %this.addr = alloca ptr, align 8
  store ptr %this, ptr %this.addr, align 8
  %this1 = load ptr, ptr %this.addr, align 8
  %reorderTable = getelementptr inbounds %"struct.icu_75::CollationSettings", ptr %this1, i32 0, i32 3
  %0 = load ptr, ptr %reorderTable, align 8
  %cmp = icmp ne ptr %0, null
  %conv = zext i1 %cmp to i8
  ret i8 %conv
}

; Function Attrs: mustprogress nounwind uwtable
define internal noundef signext i8 @_ZL9U_FAILURE10UErrorCode(i32 noundef %code) #1 {
entry:
  %code.addr = alloca i32, align 4
  store i32 %code, ptr %code.addr, align 4
  %0 = load i32, ptr %code.addr, align 4
  %cmp = icmp sgt i32 %0, 0
  %conv = zext i1 %cmp to i8
  ret i8 %conv
}

; Function Attrs: mustprogress uwtable
define void @_ZN6icu_7517CollationSettings18copyReorderingFromERKS0_R10UErrorCode(ptr noundef nonnull align 8 dereferenceable(852) %this, ptr noundef nonnull align 8 dereferenceable(852) %other, ptr noundef nonnull align 4 dereferenceable(4) %errorCode) #0 align 2 {
entry:
  %this.addr = alloca ptr, align 8
  %other.addr = alloca ptr, align 8
  %errorCode.addr = alloca ptr, align 8
  store ptr %this, ptr %this.addr, align 8
  store ptr %other, ptr %other.addr, align 8
  store ptr %errorCode, ptr %errorCode.addr, align 8
  %this1 = load ptr, ptr %this.addr, align 8
  %0 = load ptr, ptr %errorCode.addr, align 8
  %1 = load i32, ptr %0, align 4
  %call = call noundef signext i8 @_ZL9U_FAILURE10UErrorCode(i32 noundef %1)
  %tobool = icmp ne i8 %call, 0
  br i1 %tobool, label %if.then, label %if.end

if.then:                                          ; preds = %entry
  br label %if.end18

if.end:                                           ; preds = %entry
  %2 = load ptr, ptr %other.addr, align 8
  %call2 = call noundef signext i8 @_ZNK6icu_7517CollationSettings13hasReorderingEv(ptr noundef nonnull align 8 dereferenceable(852) %2)
  %tobool3 = icmp ne i8 %call2, 0
  br i1 %tobool3, label %if.end5, label %if.then4

if.then4:                                         ; preds = %if.end
  call void @_ZN6icu_7517CollationSettings15resetReorderingEv(ptr noundef nonnull align 8 dereferenceable(852) %this1)
  br label %if.end18

if.end5:                                          ; preds = %if.end
  %3 = load ptr, ptr %other.addr, align 8
  %minHighNoReorder = getelementptr inbounds %"struct.icu_75::CollationSettings", ptr %3, i32 0, i32 4
  %4 = load i32, ptr %minHighNoReorder, align 8
  %minHighNoReorder6 = getelementptr inbounds %"struct.icu_75::CollationSettings", ptr %this1, i32 0, i32 4
  store i32 %4, ptr %minHighNoReorder6, align 8
  %5 = load ptr, ptr %other.addr, align 8
  %reorderCodesCapacity = getelementptr inbounds %"struct.icu_75::CollationSettings", ptr %5, i32 0, i32 11
  %6 = load i32, ptr %reorderCodesCapacity, align 4
  %cmp = icmp eq i32 %6, 0
  br i1 %cmp, label %if.then7, label %if.else

if.then7:                                         ; preds = %if.end5
  %7 = load ptr, ptr %other.addr, align 8
  %reorderTable = getelementptr inbounds %"struct.icu_75::CollationSettings", ptr %7, i32 0, i32 3
  %8 = load ptr, ptr %reorderTable, align 8
  %reorderTable8 = getelementptr inbounds %"struct.icu_75::CollationSettings", ptr %this1, i32 0, i32 3
  store ptr %8, ptr %reorderTable8, align 8
  %9 = load ptr, ptr %other.addr, align 8
  %reorderRanges = getelementptr inbounds %"struct.icu_75::CollationSettings", ptr %9, i32 0, i32 6
  %10 = load ptr, ptr %reorderRanges, align 8
  %reorderRanges9 = getelementptr inbounds %"struct.icu_75::CollationSettings", ptr %this1, i32 0, i32 6
  store ptr %10, ptr %reorderRanges9, align 8
  %11 = load ptr, ptr %other.addr, align 8
  %reorderRangesLength = getelementptr inbounds %"struct.icu_75::CollationSettings", ptr %11, i32 0, i32 7
  %12 = load i32, ptr %reorderRangesLength, align 8
  %reorderRangesLength10 = getelementptr inbounds %"struct.icu_75::CollationSettings", ptr %this1, i32 0, i32 7
  store i32 %12, ptr %reorderRangesLength10, align 8
  %13 = load ptr, ptr %other.addr, align 8
  %reorderCodes = getelementptr inbounds %"struct.icu_75::CollationSettings", ptr %13, i32 0, i32 9
  %14 = load ptr, ptr %reorderCodes, align 8
  %reorderCodes11 = getelementptr inbounds %"struct.icu_75::CollationSettings", ptr %this1, i32 0, i32 9
  store ptr %14, ptr %reorderCodes11, align 8
  %15 = load ptr, ptr %other.addr, align 8
  %reorderCodesLength = getelementptr inbounds %"struct.icu_75::CollationSettings", ptr %15, i32 0, i32 10
  %16 = load i32, ptr %reorderCodesLength, align 8
  %reorderCodesLength12 = getelementptr inbounds %"struct.icu_75::CollationSettings", ptr %this1, i32 0, i32 10
  store i32 %16, ptr %reorderCodesLength12, align 8
  br label %if.end18

if.else:                                          ; preds = %if.end5
  %17 = load ptr, ptr %other.addr, align 8
  %reorderCodes13 = getelementptr inbounds %"struct.icu_75::CollationSettings", ptr %17, i32 0, i32 9
  %18 = load ptr, ptr %reorderCodes13, align 8
  %19 = load ptr, ptr %other.addr, align 8
  %reorderCodesLength14 = getelementptr inbounds %"struct.icu_75::CollationSettings", ptr %19, i32 0, i32 10
  %20 = load i32, ptr %reorderCodesLength14, align 8
  %21 = load ptr, ptr %other.addr, align 8
  %reorderRanges15 = getelementptr inbounds %"struct.icu_75::CollationSettings", ptr %21, i32 0, i32 6
  %22 = load ptr, ptr %reorderRanges15, align 8
  %23 = load ptr, ptr %other.addr, align 8
  %reorderRangesLength16 = getelementptr inbounds %"struct.icu_75::CollationSettings", ptr %23, i32 0, i32 7
  %24 = load i32, ptr %reorderRangesLength16, align 8
  %25 = load ptr, ptr %other.addr, align 8
  %reorderTable17 = getelementptr inbounds %"struct.icu_75::CollationSettings", ptr %25, i32 0, i32 3
  %26 = load ptr, ptr %reorderTable17, align 8
  %27 = load ptr, ptr %errorCode.addr, align 8
  call void @_ZN6icu_7517CollationSettings16setReorderArraysEPKiiPKjiPKhR10UErrorCode(ptr noundef nonnull align 8 dereferenceable(852) %this1, ptr noundef %18, i32 noundef %20, ptr noundef %22, i32 noundef %24, ptr noundef %26, ptr noundef nonnull align 4 dereferenceable(4) %27)
  br label %if.end18

if.end18:                                         ; preds = %if.else, %if.then7, %if.then4, %if.then
  ret void
}