; Function Attrs: mustprogress uwtable
define void @_ZN6icu_7517CollationSettings18copyReorderingFromERKS0_R10UErrorCode(ptr nocapture noundef nonnull align 8 dereferenceable(852) %this, ptr nocapture noundef nonnull readonly align 8 dereferenceable(852) %other, ptr nocapture noundef nonnull align 4 dereferenceable(4) %errorCode) local_unnamed_addr #0 align 2 {
entry:
  %0 = load i32, ptr %errorCode, align 4
  %cmp.i = icmp slt i32 %0, 1
  br i1 %cmp.i, label %if.end, label %if.end18

if.end:                                           ; preds = %entry
  %reorderTable.i = getelementptr inbounds i8, ptr %other, i64 32
  %1 = load ptr, ptr %reorderTable.i, align 8
  %cmp.i14.not = icmp eq ptr %1, null
  %minHighNoReorder.i = getelementptr inbounds i8, ptr %this, i64 40
  br i1 %cmp.i14.not, label %if.then4, label %if.end5

if.then4:                                         ; preds = %if.end
  %reorderTable.i16 = getelementptr inbounds i8, ptr %this, i64 32
  store ptr null, ptr %reorderTable.i16, align 8
  store i32 0, ptr %minHighNoReorder.i, align 8
  %reorderRangesLength.i = getelementptr inbounds i8, ptr %this, i64 56
  store i32 0, ptr %reorderRangesLength.i, align 8
  %reorderCodesLength.i = getelementptr inbounds i8, ptr %this, i64 72
  store i32 0, ptr %reorderCodesLength.i, align 8
  br label %if.end18

if.end5:                                          ; preds = %if.end
  %minHighNoReorder = getelementptr inbounds i8, ptr %other, i64 40
  %2 = load i32, ptr %minHighNoReorder, align 8
  store i32 %2, ptr %minHighNoReorder.i, align 8
  %reorderCodesCapacity = getelementptr inbounds i8, ptr %other, i64 76
  %3 = load i32, ptr %reorderCodesCapacity, align 4
  %cmp = icmp eq i32 %3, 0
  br i1 %cmp, label %if.then7, label %if.else

if.then7:                                         ; preds = %if.end5
  %4 = load ptr, ptr %reorderTable.i, align 8
  %reorderTable8 = getelementptr inbounds i8, ptr %this, i64 32
  store ptr %4, ptr %reorderTable8, align 8
  %reorderRanges = getelementptr inbounds i8, ptr %other, i64 48
  %5 = load ptr, ptr %reorderRanges, align 8
  %reorderRanges9 = getelementptr inbounds i8, ptr %this, i64 48
  store ptr %5, ptr %reorderRanges9, align 8
  %reorderRangesLength = getelementptr inbounds i8, ptr %other, i64 56
  %6 = load i32, ptr %reorderRangesLength, align 8
  %reorderRangesLength10 = getelementptr inbounds i8, ptr %this, i64 56
  store i32 %6, ptr %reorderRangesLength10, align 8
  %reorderCodes = getelementptr inbounds i8, ptr %other, i64 64
  %7 = load ptr, ptr %reorderCodes, align 8
  %reorderCodes11 = getelementptr inbounds i8, ptr %this, i64 64
  store ptr %7, ptr %reorderCodes11, align 8
  %reorderCodesLength = getelementptr inbounds i8, ptr %other, i64 72
  %8 = load i32, ptr %reorderCodesLength, align 8
  %reorderCodesLength12 = getelementptr inbounds i8, ptr %this, i64 72
  store i32 %8, ptr %reorderCodesLength12, align 8
  br label %if.end18

if.else:                                          ; preds = %if.end5
  %reorderCodes13 = getelementptr inbounds i8, ptr %other, i64 64
  %9 = load ptr, ptr %reorderCodes13, align 8
  %reorderCodesLength14 = getelementptr inbounds i8, ptr %other, i64 72
  %10 = load i32, ptr %reorderCodesLength14, align 8
  %reorderRanges15 = getelementptr inbounds i8, ptr %other, i64 48
  %11 = load ptr, ptr %reorderRanges15, align 8
  %reorderRangesLength16 = getelementptr inbounds i8, ptr %other, i64 56
  %12 = load i32, ptr %reorderRangesLength16, align 8
  %13 = load ptr, ptr %reorderTable.i, align 8
  %14 = load i32, ptr %errorCode, align 4
  %cmp.i.i = icmp slt i32 %14, 1
  br i1 %cmp.i.i, label %if.end.i, label %if.end18

if.end.i:                                         ; preds = %if.else
  %add.i = add nsw i32 %12, %10
  %reorderCodesCapacity.i = getelementptr inbounds i8, ptr %this, i64 76
  %15 = load i32, ptr %reorderCodesCapacity.i, align 4
  %cmp.not.i = icmp sgt i32 %add.i, %15
  br i1 %cmp.not.i, label %if.else.i, label %if.then2.i

if.then2.i:                                       ; preds = %if.end.i
  %reorderCodes.i = getelementptr inbounds i8, ptr %this, i64 64
  %16 = load ptr, ptr %reorderCodes.i, align 8
  br label %do.body.i

if.else.i:                                        ; preds = %if.end.i
  %add3.i = add nsw i32 %add.i, 3
  %and.i = and i32 %add3.i, -4
  %mul.i = shl nsw i32 %and.i, 2
  %add4.i = add nsw i32 %mul.i, 256
  %conv.i20 = sext i32 %add4.i to i64
  %call5.i = tail call noalias ptr @uprv_malloc_75(i64 noundef %conv.i20) #14
  %cmp6.i = icmp eq ptr %call5.i, null
  br i1 %cmp6.i, label %if.then7.i, label %if.end8.i

if.then7.i:                                       ; preds = %if.else.i
  %reorderTable.i.i = getelementptr inbounds i8, ptr %this, i64 32
  store ptr null, ptr %reorderTable.i.i, align 8
  store i32 0, ptr %minHighNoReorder.i, align 8
  %reorderRangesLength.i.i = getelementptr inbounds i8, ptr %this, i64 56
  store i32 0, ptr %reorderRangesLength.i.i, align 8
  %reorderCodesLength.i.i = getelementptr inbounds i8, ptr %this, i64 72
  store i32 0, ptr %reorderCodesLength.i.i, align 8
  store i32 7, ptr %errorCode, align 4
  br label %if.end18

if.end8.i:                                        ; preds = %if.else.i
  %17 = load i32, ptr %reorderCodesCapacity.i, align 4
  %cmp10.not.i = icmp eq i32 %17, 0
  br i1 %cmp10.not.i, label %if.end13.i, label %if.then11.i

if.then11.i:                                      ; preds = %if.end8.i
  %reorderCodes12.i = getelementptr inbounds i8, ptr %this, i64 64
  %18 = load ptr, ptr %reorderCodes12.i, align 8
  tail call void @uprv_free_75(ptr noundef %18)
  br label %if.end13.i

if.end13.i:                                       ; preds = %if.then11.i, %if.end8.i
  %reorderCodes14.i = getelementptr inbounds i8, ptr %this, i64 64
  store ptr %call5.i, ptr %reorderCodes14.i, align 8
  store i32 %and.i, ptr %reorderCodesCapacity.i, align 4
  br label %do.body.i

do.body.i:                                        ; preds = %if.end13.i, %if.then2.i
  %19 = phi i32 [ %15, %if.then2.i ], [ %and.i, %if.end13.i ]
  %ownedCodes.0.i = phi ptr [ %16, %if.then2.i ], [ %call5.i, %if.end13.i ]
  %idx.ext.i = sext i32 %19 to i64
  %add.ptr.i = getelementptr inbounds i32, ptr %ownedCodes.0.i, i64 %idx.ext.i
  tail call void @llvm.memcpy.p0.p0.i64(ptr noundef nonnull align 4 dereferenceable(256) %add.ptr.i, ptr noundef nonnull align 1 dereferenceable(256) %13, i64 256, i1 false)
  %mul19.i = shl nsw i32 %10, 2
  %conv20.i = sext i32 %mul19.i to i64
  tail call void @llvm.memcpy.p0.p0.i64(ptr align 4 %ownedCodes.0.i, ptr align 4 %9, i64 %conv20.i, i1 false)
  %idx.ext23.i = sext i32 %10 to i64
  %add.ptr24.i = getelementptr inbounds i32, ptr %ownedCodes.0.i, i64 %idx.ext23.i
  %mul25.i = shl nsw i32 %12, 2
  %conv26.i = sext i32 %mul25.i to i64
  tail call void @llvm.memcpy.p0.p0.i64(ptr align 4 %add.ptr24.i, ptr align 4 %11, i64 %conv26.i, i1 false)
  %reorderCodes28.i = getelementptr inbounds i8, ptr %this, i64 64
  %20 = load ptr, ptr %reorderCodes28.i, align 8
  %21 = load i32, ptr %reorderCodesCapacity.i, align 4
  %idx.ext30.i = sext i32 %21 to i64
  %add.ptr31.i = getelementptr inbounds i32, ptr %20, i64 %idx.ext30.i
  %reorderTable.i17 = getelementptr inbounds i8, ptr %this, i64 32
  store ptr %add.ptr31.i, ptr %reorderTable.i17, align 8
  %reorderCodesLength.i18 = getelementptr inbounds i8, ptr %this, i64 72
  store i32 %10, ptr %reorderCodesLength.i18, align 8
  %reorderRanges.i = getelementptr inbounds i8, ptr %this, i64 48
  store ptr %add.ptr24.i, ptr %reorderRanges.i, align 8
  %reorderRangesLength.i19 = getelementptr inbounds i8, ptr %this, i64 56
  store i32 %12, ptr %reorderRangesLength.i19, align 8
  br label %if.end18

if.end18:                                         ; preds = %do.body.i, %if.then7.i, %if.else, %entry, %if.then7, %if.then4
  ret void
}